target datalayout = "e-m:e-p270:32:32-p271:32:32-p272:64:64-i64:64-i128:128-f80:128-n8:16:32:64-S128"
target triple = "x86_64-unknown-linux-gnu"

%"class.sat::literal" = type { i32 }
%"class.sat::binspr" = type <{ ptr, %class.scoped_ptr.38, i32, i32, %class.vector.39, i32, i32, %class.svector.14, %class.svector.14, %class.svector.26, %class.svector.26, i32, i32, i32, i32, i32, [4 x i32], [5 x i32], [5 x i32], [4 x i8] }>
%class.scoped_ptr.38 = type { ptr }
%class.vector.39 = type { ptr }
%class.svector.14 = type { %class.vector.15 }
%class.vector.15 = type { ptr }
%class.svector.26 = type { %class.vector.27 }
%class.vector.27 = type { ptr }

; Function Attrs: mustprogress nounwind uwtable
define linkonce_odr hidden noundef i32 @_Z8to_lboolb(i1 noundef zeroext %b) #4 comdat {
entry:
  %b.addr = alloca i8, align 1
  %frombool = zext i1 %b to i8
  store i8 %frombool, ptr %b.addr, align 1
  %0 = load i8, ptr %b.addr, align 1
  %tobool = trunc i8 %0 to i1
  %conv = zext i1 %tobool to i32
  %mul = mul nsw i32 %conv, 2
  %sub = sub nsw i32 %mul, 1
  ret i32 %sub
}

; Function Attrs: mustprogress nounwind uwtable
define linkonce_odr hidden noundef zeroext i1 @_ZNK3sat7literal4signEv(ptr noundef nonnull align 4 dereferenceable(4) %this) #4 comdat align 2 {
entry:
  %this.addr = alloca ptr, align 8
  store ptr %this, ptr %this.addr, align 8
  %this1 = load ptr, ptr %this.addr, align 8
  %m_val = getelementptr inbounds %"class.sat::literal", ptr %this1, i32 0, i32 0
  %0 = load i32, ptr %m_val, align 4
  %conv = zext i32 %0 to i64
  %and = and i64 %conv, 1
  %tobool = icmp ne i64 %and, 0
  ret i1 %tobool
}

; Function Attrs: mustprogress nounwind uwtable
define linkonce_odr hidden noundef i32 @_ZNK3sat7literal3varEv(ptr noundef nonnull align 4 dereferenceable(4) %this) #4 comdat align 2 {
entry:
  %this.addr = alloca ptr, align 8
  store ptr %this, ptr %this.addr, align 8
  %this1 = load ptr, ptr %this.addr, align 8
  %m_val = getelementptr inbounds %"class.sat::literal", ptr %this1, i32 0, i32 0
  %0 = load i32, ptr %m_val, align 4
  %shr = lshr i32 %0, 1
  ret i32 %shr
}

; Function Attrs: mustprogress uwtable
define hidden noundef zeroext i1 @_ZN3sat6binspr5touchENS_7literalE(ptr noundef nonnull align 8 dereferenceable(148) %this, i32 %p.coerce) #5 align 2 {
entry:
  %retval = alloca i1, align 1
  %p = alloca %"class.sat::literal", align 4
  %this.addr = alloca ptr, align 8
  %v = alloca i32, align 4
  %coerce.dive = getelementptr inbounds %"class.sat::literal", ptr %p, i32 0, i32 0
  store i32 %p.coerce, ptr %coerce.dive, align 4
  store ptr %this, ptr %this.addr, align 8
  %this1 = load ptr, ptr %this.addr, align 8
  %call = call noundef i32 @_ZNK3sat7literal3varEv(ptr noundef nonnull align 4 dereferenceable(4) %p)
  store i32 %call, ptr %v, align 4
  %0 = load i32, ptr %v, align 4
  %m_p = getelementptr inbounds %"class.sat::binspr", ptr %this1, i32 0, i32 12
  %1 = load i32, ptr %m_p, align 4
  %cmp = icmp eq i32 %0, %1
  br i1 %cmp, label %if.then, label %if.else

if.then:                                          ; preds = %entry
  %call2 = call noundef zeroext i1 @_ZNK3sat7literal4signEv(ptr noundef nonnull align 4 dereferenceable(4) %p)
  %lnot = xor i1 %call2, true
  %call3 = call noundef i32 @_Z8to_lboolb(i1 noundef zeroext %lnot)
  %m_vals = getelementptr inbounds %"class.sat::binspr", ptr %this1, i32 0, i32 16
  %arrayidx = getelementptr inbounds [4 x i32], ptr %m_vals, i64 0, i64 0
  store i32 %call3, ptr %arrayidx, align 4
  br label %if.end30

if.else:                                          ; preds = %entry
  %2 = load i32, ptr %v, align 4
  %m_q = getelementptr inbounds %"class.sat::binspr", ptr %this1, i32 0, i32 13
  %3 = load i32, ptr %m_q, align 8
  %cmp4 = icmp eq i32 %2, %3
  br i1 %cmp4, label %if.then5, label %if.else11

if.then5:                                         ; preds = %if.else
  %call6 = call noundef zeroext i1 @_ZNK3sat7literal4signEv(ptr noundef nonnull align 4 dereferenceable(4) %p)
  %lnot7 = xor i1 %call6, true
  %call8 = call noundef i32 @_Z8to_lboolb(i1 noundef zeroext %lnot7)
  %m_vals9 = getelementptr inbounds %"class.sat::binspr", ptr %this1, i32 0, i32 16
  %arrayidx10 = getelementptr inbounds [4 x i32], ptr %m_vals9, i64 0, i64 1
  store i32 %call8, ptr %arrayidx10, align 4
  br label %if.end29

if.else11:                                        ; preds = %if.else
  %4 = load i32, ptr %v, align 4
  %m_u = getelementptr inbounds %"class.sat::binspr", ptr %this1, i32 0, i32 14
  %5 = load i32, ptr %m_u, align 4
  %cmp12 = icmp eq i32 %4, %5
  br i1 %cmp12, label %if.then13, label %if.else19

if.then13:                                        ; preds = %if.else11
  %call14 = call noundef zeroext i1 @_ZNK3sat7literal4signEv(ptr noundef nonnull align 4 dereferenceable(4) %p)
  %lnot15 = xor i1 %call14, true
  %call16 = call noundef i32 @_Z8to_lboolb(i1 noundef zeroext %lnot15)
  %m_vals17 = getelementptr inbounds %"class.sat::binspr", ptr %this1, i32 0, i32 16
  %arrayidx18 = getelementptr inbounds [4 x i32], ptr %m_vals17, i64 0, i64 2
  store i32 %call16, ptr %arrayidx18, align 4
  br label %if.end28

if.else19:                                        ; preds = %if.else11
  %6 = load i32, ptr %v, align 4
  %m_v = getelementptr inbounds %"class.sat::binspr", ptr %this1, i32 0, i32 15
  %7 = load i32, ptr %m_v, align 8
  %cmp20 = icmp eq i32 %6, %7
  br i1 %cmp20, label %if.then21, label %if.else27

if.then21:                                        ; preds = %if.else19
  %call22 = call noundef zeroext i1 @_ZNK3sat7literal4signEv(ptr noundef nonnull align 4 dereferenceable(4) %p)
  %lnot23 = xor i1 %call22, true
  %call24 = call noundef i32 @_Z8to_lboolb(i1 noundef zeroext %lnot23)
  %m_vals25 = getelementptr inbounds %"class.sat::binspr", ptr %this1, i32 0, i32 16
  %arrayidx26 = getelementptr inbounds [4 x i32], ptr %m_vals25, i64 0, i64 3
  store i32 %call24, ptr %arrayidx26, align 4
  br label %if.end

if.else27:                                        ; preds = %if.else19
  store i1 false, ptr %retval, align 1
  br label %return

if.end:                                           ; preds = %if.then21
  br label %if.end28

if.end28:                                         ; preds = %if.end, %if.then13
  br label %if.end29

if.end29:                                         ; preds = %if.end28, %if.then5
  br label %if.end30

if.end30:                                         ; preds = %if.end29, %if.then
  store i1 true, ptr %retval, align 1
  br label %return

return:                                           ; preds = %if.end30, %if.else27
  %8 = load i1, ptr %retval, align 1
  ret i1 %8
}