; Function Attrs: mustprogress nofree norecurse nosync nounwind willreturn memory(argmem: readwrite) uwtable
define hidden noundef zeroext i1 @_ZN3sat6binspr5touchENS_7literalE(ptr nocapture noundef nonnull align 8 dereferenceable(148) %this, i32 %p.coerce) local_unnamed_addr #10 align 2 {
entry:
  %shr.i = lshr i32 %p.coerce, 1
  %m_p = getelementptr inbounds i8, ptr %this, i64 76
  %0 = load i32, ptr %m_p, align 4
  %cmp = icmp eq i32 %shr.i, %0
  br i1 %cmp, label %return.sink.split, label %if.else

if.else:                                          ; preds = %entry
  %m_q = getelementptr inbounds i8, ptr %this, i64 80
  %1 = load i32, ptr %m_q, align 8
  %cmp4 = icmp eq i32 %shr.i, %1
  br i1 %cmp4, label %return.sink.split, label %if.else11

if.else11:                                        ; preds = %if.else
  %m_u = getelementptr inbounds i8, ptr %this, i64 84
  %2 = load i32, ptr %m_u, align 4
  %cmp12 = icmp eq i32 %shr.i, %2
  br i1 %cmp12, label %return.sink.split, label %if.else19

if.else19:                                        ; preds = %if.else11
  %m_v = getelementptr inbounds i8, ptr %this, i64 88
  %3 = load i32, ptr %m_v, align 8
  %cmp20 = icmp eq i32 %shr.i, %3
  br i1 %cmp20, label %return.sink.split, label %return

return.sink.split:                                ; preds = %if.else19, %if.else11, %if.else, %entry
  %.sink = phi i64 [ 92, %entry ], [ 96, %if.else ], [ 100, %if.else11 ], [ 104, %if.else19 ]
  %4 = and i32 %p.coerce, 1
  %tobool.i.not = icmp eq i32 %4, 0
  %sub.i = select i1 %tobool.i.not, i32 1, i32 -1
  %m_vals = getelementptr inbounds i8, ptr %this, i64 %.sink
  store i32 %sub.i, ptr %m_vals, align 4
  br label %return

return:                                           ; preds = %return.sink.split, %if.else19
  %retval.0 = phi i1 [ false, %if.else19 ], [ true, %return.sink.split ]
  ret i1 %retval.0
}